target datalayout = "e-m:e-p270:32:32-p271:32:32-p272:64:64-i64:64-i128:128-f80:128-n8:16:32:64-S128"
target triple = "x86_64-pc-linux-gnu"

%"class.llvm::SmallVectorBase" = type { ptr, i32, i32 }
%"class.llvm::SmallVectorImpl.288" = type { %"class.llvm::SmallVectorTemplateBase.289" }
%"class.llvm::SmallVectorTemplateBase.289" = type { %"class.llvm::SmallVectorTemplateCommon.290" }
%"class.llvm::SmallVectorTemplateCommon.290" = type { %"class.llvm::SmallVectorBase" }
%"class.llvm::SmallVector.556" = type { %"class.llvm::SmallVectorImpl.288", %"struct.llvm::SmallVectorStorage.557" }
%"struct.llvm::SmallVectorStorage.557" = type { [32 x i8] }
%"class.llvm::DenseMap.661" = type <{ ptr, i32, i32, i32, [4 x i8] }>
%"class.llvm::detail::DenseSetPair.688" = type { %"class.llvm::SmallVector.556" }

; Function Attrs: mustprogress nounwind uwtable
define linkonce_odr hidden noundef ptr @_ZNK4llvm25SmallVectorTemplateCommonIPKNS_4SCEVEvE10getFirstElEv(ptr noundef nonnull align 8 dereferenceable(16) %0) #1 comdat align 2 {
  %2 = alloca ptr, align 8
  store ptr %0, ptr %2, align 8
  %3 = load ptr, ptr %2, align 8
  %4 = getelementptr inbounds i8, ptr %3, i64 16
  ret ptr %4
}

; Function Attrs: mustprogress nounwind uwtable
define linkonce_odr hidden void @_ZN4llvm25SmallVectorTemplateCommonIPKNS_4SCEVEvEC2Em(ptr noundef nonnull align 8 dereferenceable(16) %0, i64 noundef %1) unnamed_addr #1 comdat align 2 {
  %3 = alloca ptr, align 8
  %4 = alloca i64, align 8
  store ptr %0, ptr %3, align 8
  store i64 %1, ptr %4, align 8
  %5 = load ptr, ptr %3, align 8
  %6 = call noundef ptr @_ZNK4llvm25SmallVectorTemplateCommonIPKNS_4SCEVEvE10getFirstElEv(ptr noundef nonnull align 8 dereferenceable(16) %5)
  %7 = load i64, ptr %4, align 8
  call void @_ZN4llvm15SmallVectorBaseIjEC2EPvm(ptr noundef nonnull align 8 dereferenceable(16) %5, ptr noundef %6, i64 noundef %7)
  ret void
}

; Function Attrs: mustprogress nounwind uwtable
define linkonce_odr hidden noundef zeroext i1 @_ZNK4llvm25SmallVectorTemplateCommonIPKNS_4SCEVEvE7isSmallEv(ptr noundef nonnull align 8 dereferenceable(16) %0) #1 comdat align 2 {
  %2 = alloca ptr, align 8
  store ptr %0, ptr %2, align 8
  %3 = load ptr, ptr %2, align 8
  %4 = getelementptr inbounds nuw %"class.llvm::SmallVectorBase", ptr %3, i32 0, i32 0
  %5 = load ptr, ptr %4, align 8
  %6 = call noundef ptr @_ZNK4llvm25SmallVectorTemplateCommonIPKNS_4SCEVEvE10getFirstElEv(ptr noundef nonnull align 8 dereferenceable(16) %3)
  %7 = icmp eq ptr %5, %6
  ret i1 %7
}

; Function Attrs: mustprogress nounwind uwtable
define linkonce_odr hidden void @_ZN4llvm23SmallVectorTemplateBaseIPKNS_4SCEVELb1EEC2Em(ptr noundef nonnull align 8 dereferenceable(16) %0, i64 noundef %1) unnamed_addr #1 comdat align 2 {
  %3 = alloca ptr, align 8
  %4 = alloca i64, align 8
  store ptr %0, ptr %3, align 8
  store i64 %1, ptr %4, align 8
  %5 = load ptr, ptr %3, align 8
  %6 = load i64, ptr %4, align 8
  call void @_ZN4llvm25SmallVectorTemplateCommonIPKNS_4SCEVEvEC2Em(ptr noundef nonnull align 8 dereferenceable(16) %5, i64 noundef %6)
  ret void
}

; Function Attrs: mustprogress nounwind uwtable
define internal noundef i32 @_ZNK4llvm8DenseMapINS_11SmallVectorIPKNS_4SCEVELj4EEENS_6detail13DenseSetEmptyEN12_GLOBAL__N_122UniquifierDenseMapInfoENS6_12DenseSetPairIS5_EEE13getNumBucketsEv(ptr noundef nonnull align 8 dereferenceable(20) %0) #1 align 2 {
  %2 = alloca ptr, align 8
  store ptr %0, ptr %2, align 8
  %3 = load ptr, ptr %2, align 8
  %4 = getelementptr inbounds nuw %"class.llvm::DenseMap.661", ptr %3, i32 0, i32 3
  %5 = load i32, ptr %4, align 8
  ret i32 %5
}

; Function Attrs: mustprogress nounwind uwtable
define linkonce_odr hidden void @_ZN4llvm15SmallVectorImplIPKNS_4SCEVEED2Ev(ptr noundef nonnull align 8 dereferenceable(16) %0) unnamed_addr #1 comdat align 2 {
  %2 = alloca ptr, align 8
  store ptr %0, ptr %2, align 8
  %3 = load ptr, ptr %2, align 8
  %4 = call noundef zeroext i1 @_ZNK4llvm25SmallVectorTemplateCommonIPKNS_4SCEVEvE7isSmallEv(ptr noundef nonnull align 8 dereferenceable(16) %3)
  br i1 %4, label %7, label %5

5:                                                ; preds = %1
  %6 = call noundef ptr @_ZN4llvm25SmallVectorTemplateCommonIPKNS_4SCEVEvE5beginEv(ptr noundef nonnull align 8 dereferenceable(16) %3)
  call void @free(ptr noundef %6) #2
  br label %7

7:                                                ; preds = %5, %1
  ret void
}

; Function Attrs: mustprogress nounwind uwtable
define linkonce_odr hidden void @_ZN4llvm23SmallVectorTemplateBaseIPKNS_4SCEVELb1EE13destroy_rangeEPS3_S5_(ptr noundef %0, ptr noundef %1) #1 comdat align 2 {
  %3 = alloca ptr, align 8
  %4 = alloca ptr, align 8
  store ptr %0, ptr %3, align 8
  store ptr %1, ptr %4, align 8
  ret void
}

; Function Attrs: mustprogress nounwind uwtable
define linkonce_odr hidden noundef ptr @_ZN4llvm25SmallVectorTemplateCommonIPKNS_4SCEVEvE3endEv(ptr noundef nonnull align 8 dereferenceable(16) %0) #1 comdat align 2 {
  %2 = alloca ptr, align 8
  store ptr %0, ptr %2, align 8
  %3 = load ptr, ptr %2, align 8
  %4 = call noundef ptr @_ZN4llvm25SmallVectorTemplateCommonIPKNS_4SCEVEvE5beginEv(ptr noundef nonnull align 8 dereferenceable(16) %3)
  %5 = call noundef i64 @_ZNK4llvm15SmallVectorBaseIjE4sizeEv(ptr noundef nonnull align 8 dereferenceable(16) %3)
  %6 = getelementptr inbounds ptr, ptr %4, i64 %5
  ret ptr %6
}

; Function Attrs: mustprogress nounwind uwtable
define linkonce_odr hidden noundef ptr @_ZN4llvm25SmallVectorTemplateCommonIPKNS_4SCEVEvE5beginEv(ptr noundef nonnull align 8 dereferenceable(16) %0) #1 comdat align 2 {
  %2 = alloca ptr, align 8
  store ptr %0, ptr %2, align 8
  %3 = load ptr, ptr %2, align 8
  %4 = getelementptr inbounds nuw %"class.llvm::SmallVectorBase", ptr %3, i32 0, i32 0
  %5 = load ptr, ptr %4, align 8
  ret ptr %5
}

; Function Attrs: mustprogress nounwind uwtable
define linkonce_odr hidden void @_ZN4llvm15SmallVectorImplIPKNS_4SCEVEEC2Ej(ptr noundef nonnull align 8 dereferenceable(16) %0, i32 noundef %1) unnamed_addr #1 comdat align 2 {
  %3 = alloca ptr, align 8
  %4 = alloca i32, align 4
  store ptr %0, ptr %3, align 8
  store i32 %1, ptr %4, align 4
  %5 = load ptr, ptr %3, align 8
  %6 = load i32, ptr %4, align 4
  %7 = zext i32 %6 to i64
  call void @_ZN4llvm23SmallVectorTemplateBaseIPKNS_4SCEVELb1EEC2Em(ptr noundef nonnull align 8 dereferenceable(16) %5, i64 noundef %7)
  ret void
}

; Function Attrs: mustprogress nounwind uwtable
define internal noundef i32 @_ZNK4llvm12DenseMapBaseINS_8DenseMapINS_11SmallVectorIPKNS_4SCEVELj4EEENS_6detail13DenseSetEmptyEN12_GLOBAL__N_122UniquifierDenseMapInfoENS7_12DenseSetPairIS6_EEEES6_S8_SA_SC_E13getNumBucketsEv(ptr noundef nonnull align 1 dereferenceable(1) %0) #1 align 2 {
  %2 = alloca ptr, align 8
  store ptr %0, ptr %2, align 8
  %3 = load ptr, ptr %2, align 8
  %4 = call noundef i32 @_ZNK4llvm8DenseMapINS_11SmallVectorIPKNS_4SCEVELj4EEENS_6detail13DenseSetEmptyEN12_GLOBAL__N_122UniquifierDenseMapInfoENS6_12DenseSetPairIS5_EEE13getNumBucketsEv(ptr noundef nonnull align 8 dereferenceable(20) %3)
  ret i32 %4
}

; Function Attrs: mustprogress nounwind uwtable
define internal noundef ptr @_ZNK4llvm8DenseMapINS_11SmallVectorIPKNS_4SCEVELj4EEENS_6detail13DenseSetEmptyEN12_GLOBAL__N_122UniquifierDenseMapInfoENS6_12DenseSetPairIS5_EEE10getBucketsEv(ptr noundef nonnull align 8 dereferenceable(20) %0) #1 align 2 {
  %2 = alloca ptr, align 8
  store ptr %0, ptr %2, align 8
  %3 = load ptr, ptr %2, align 8
  %4 = getelementptr inbounds nuw %"class.llvm::DenseMap.661", ptr %3, i32 0, i32 0
  %5 = load ptr, ptr %4, align 8
  ret ptr %5
}

; Function Attrs: mustprogress nounwind uwtable
define internal void @_ZN4llvm8DenseMapINS_11SmallVectorIPKNS_4SCEVELj4EEENS_6detail13DenseSetEmptyEN12_GLOBAL__N_122UniquifierDenseMapInfoENS6_12DenseSetPairIS5_EEE16setNumTombstonesEj(ptr noundef nonnull align 8 dereferenceable(20) %0, i32 noundef %1) #1 align 2 {
  %3 = alloca ptr, align 8
  %4 = alloca i32, align 4
  store ptr %0, ptr %3, align 8
  store i32 %1, ptr %4, align 4
  %5 = load ptr, ptr %3, align 8
  %6 = load i32, ptr %4, align 4
  %7 = getelementptr inbounds nuw %"class.llvm::DenseMap.661", ptr %5, i32 0, i32 2
  store i32 %6, ptr %7, align 4
  ret void
}

; Function Attrs: mustprogress nounwind uwtable
define internal void @_ZN4llvm8DenseMapINS_11SmallVectorIPKNS_4SCEVELj4EEENS_6detail13DenseSetEmptyEN12_GLOBAL__N_122UniquifierDenseMapInfoENS6_12DenseSetPairIS5_EEE13setNumEntriesEj(ptr noundef nonnull align 8 dereferenceable(20) %0, i32 noundef %1) #1 align 2 {
  %3 = alloca ptr, align 8
  %4 = alloca i32, align 4
  store ptr %0, ptr %3, align 8
  store i32 %1, ptr %4, align 4
  %5 = load ptr, ptr %3, align 8
  %6 = load i32, ptr %4, align 4
  %7 = getelementptr inbounds nuw %"class.llvm::DenseMap.661", ptr %5, i32 0, i32 1
  store i32 %6, ptr %7, align 8
  ret void
}

; Function Attrs: mustprogress nounwind uwtable
define linkonce_odr hidden void @_ZN4llvm11SmallVectorIPKNS_4SCEVELj4EED2Ev(ptr noundef nonnull align 8 dereferenceable(48) %0) unnamed_addr #1 comdat align 2 {
  %2 = alloca ptr, align 8
  store ptr %0, ptr %2, align 8
  %3 = load ptr, ptr %2, align 8
  %4 = call noundef ptr @_ZN4llvm25SmallVectorTemplateCommonIPKNS_4SCEVEvE5beginEv(ptr noundef nonnull align 8 dereferenceable(16) %3)
  %5 = call noundef ptr @_ZN4llvm25SmallVectorTemplateCommonIPKNS_4SCEVEvE3endEv(ptr noundef nonnull align 8 dereferenceable(16) %3)
  call void @_ZN4llvm23SmallVectorTemplateBaseIPKNS_4SCEVELb1EE13destroy_rangeEPS3_S5_(ptr noundef %4, ptr noundef %5)
  call void @_ZN4llvm15SmallVectorImplIPKNS_4SCEVEED2Ev(ptr noundef nonnull align 8 dereferenceable(16) %3) #2
  ret void
}

; Function Attrs: mustprogress nounwind uwtable
define linkonce_odr hidden void @_ZN4llvm11SmallVectorIPKNS_4SCEVELj4EEC2ERKS4_(ptr noundef nonnull align 8 dereferenceable(48) %0, ptr noundef nonnull align 8 dereferenceable(48) %1) unnamed_addr #1 comdat align 2 {
  %3 = alloca ptr, align 8
  %4 = alloca ptr, align 8
  store ptr %0, ptr %3, align 8
  store ptr %1, ptr %4, align 8
  %5 = load ptr, ptr %3, align 8
  call void @_ZN4llvm15SmallVectorImplIPKNS_4SCEVEEC2Ej(ptr noundef nonnull align 8 dereferenceable(16) %5, i32 noundef 4)
  %6 = load ptr, ptr %4, align 8
  %7 = call noundef zeroext i1 @_ZNK4llvm15SmallVectorBaseIjE5emptyEv(ptr noundef nonnull align 8 dereferenceable(16) %6)
  br i1 %7, label %11, label %8

8:                                                ; preds = %2
  %9 = load ptr, ptr %4, align 8
  %10 = call noundef nonnull align 8 dereferenceable(16) ptr @_ZN4llvm15SmallVectorImplIPKNS_4SCEVEEaSERKS4_(ptr noundef nonnull align 8 dereferenceable(16) %5, ptr noundef nonnull align 8 dereferenceable(16) %9)
  br label %11

11:                                               ; preds = %8, %2
  ret void
}

; Function Attrs: mustprogress nounwind uwtable
define linkonce_odr hidden noundef nonnull align 8 dereferenceable(48) ptr @_ZN4llvm6detail12DenseSetPairINS_11SmallVectorIPKNS_4SCEVELj4EEEE8getFirstEv(ptr noundef nonnull align 8 dereferenceable(48) %0) #1 comdat align 2 {
  %2 = alloca ptr, align 8
  store ptr %0, ptr %2, align 8
  %3 = load ptr, ptr %2, align 8
  %4 = getelementptr inbounds nuw %"class.llvm::detail::DenseSetPair.688", ptr %3, i32 0, i32 0
  ret ptr %4
}

; Function Attrs: mustprogress nounwind uwtable
define internal noundef ptr @_ZN4llvm12DenseMapBaseINS_8DenseMapINS_11SmallVectorIPKNS_4SCEVELj4EEENS_6detail13DenseSetEmptyEN12_GLOBAL__N_122UniquifierDenseMapInfoENS7_12DenseSetPairIS6_EEEES6_S8_SA_SC_E13getBucketsEndEv(ptr noundef nonnull align 1 dereferenceable(1) %0) #1 align 2 {
  %2 = alloca ptr, align 8
  store ptr %0, ptr %2, align 8
  %3 = load ptr, ptr %2, align 8
  %4 = call noundef ptr @_ZN4llvm12DenseMapBaseINS_8DenseMapINS_11SmallVectorIPKNS_4SCEVELj4EEENS_6detail13DenseSetEmptyEN12_GLOBAL__N_122UniquifierDenseMapInfoENS7_12DenseSetPairIS6_EEEES6_S8_SA_SC_E10getBucketsEv(ptr noundef nonnull align 1 dereferenceable(1) %3)
  %5 = call noundef i32 @_ZNK4llvm12DenseMapBaseINS_8DenseMapINS_11SmallVectorIPKNS_4SCEVELj4EEENS_6detail13DenseSetEmptyEN12_GLOBAL__N_122UniquifierDenseMapInfoENS7_12DenseSetPairIS6_EEEES6_S8_SA_SC_E13getNumBucketsEv(ptr noundef nonnull align 1 dereferenceable(1) %3)
  %6 = zext i32 %5 to i64
  %7 = getelementptr inbounds %"class.llvm::detail::DenseSetPair.688", ptr %4, i64 %6
  ret ptr %7
}

; Function Attrs: mustprogress nounwind uwtable
define internal noundef ptr @_ZN4llvm12DenseMapBaseINS_8DenseMapINS_11SmallVectorIPKNS_4SCEVELj4EEENS_6detail13DenseSetEmptyEN12_GLOBAL__N_122UniquifierDenseMapInfoENS7_12DenseSetPairIS6_EEEES6_S8_SA_SC_E10getBucketsEv(ptr noundef nonnull align 1 dereferenceable(1) %0) #1 align 2 {
  %2 = alloca ptr, align 8
  store ptr %0, ptr %2, align 8
  %3 = load ptr, ptr %2, align 8
  %4 = call noundef ptr @_ZNK4llvm8DenseMapINS_11SmallVectorIPKNS_4SCEVELj4EEENS_6detail13DenseSetEmptyEN12_GLOBAL__N_122UniquifierDenseMapInfoENS6_12DenseSetPairIS5_EEE10getBucketsEv(ptr noundef nonnull align 8 dereferenceable(20) %3)
  ret ptr %4
}

; Function Attrs: mustprogress nounwind uwtable
define internal void @_ZN4llvm12DenseMapBaseINS_8DenseMapINS_11SmallVectorIPKNS_4SCEVELj4EEENS_6detail13DenseSetEmptyEN12_GLOBAL__N_122UniquifierDenseMapInfoENS7_12DenseSetPairIS6_EEEES6_S8_SA_SC_E11getEmptyKeyEv(ptr dead_on_unwind noalias writable sret(%"class.llvm::SmallVector.556") align 8 %0) #1 align 2 {
  %2 = alloca ptr, align 8
  store ptr %0, ptr %2, align 8
  call void @_ZN12_GLOBAL__N_122UniquifierDenseMapInfo11getEmptyKeyEv(ptr dead_on_unwind writable sret(%"class.llvm::SmallVector.556") align 8 %0)
  ret void
}

; Function Attrs: mustprogress nounwind uwtable
define internal void @_ZN4llvm12DenseMapBaseINS_8DenseMapINS_11SmallVectorIPKNS_4SCEVELj4EEENS_6detail13DenseSetEmptyEN12_GLOBAL__N_122UniquifierDenseMapInfoENS7_12DenseSetPairIS6_EEEES6_S8_SA_SC_E16setNumTombstonesEj(ptr noundef nonnull align 1 dereferenceable(1) %0, i32 noundef %1) #1 align 2 {
  %3 = alloca ptr, align 8
  %4 = alloca i32, align 4
  store ptr %0, ptr %3, align 8
  store i32 %1, ptr %4, align 4
  %5 = load ptr, ptr %3, align 8
  %6 = load i32, ptr %4, align 4
  call void @_ZN4llvm8DenseMapINS_11SmallVectorIPKNS_4SCEVELj4EEENS_6detail13DenseSetEmptyEN12_GLOBAL__N_122UniquifierDenseMapInfoENS6_12DenseSetPairIS5_EEE16setNumTombstonesEj(ptr noundef nonnull align 8 dereferenceable(20) %5, i32 noundef %6)
  ret void
}

; Function Attrs: mustprogress nounwind uwtable
define internal void @_ZN4llvm12DenseMapBaseINS_8DenseMapINS_11SmallVectorIPKNS_4SCEVELj4EEENS_6detail13DenseSetEmptyEN12_GLOBAL__N_122UniquifierDenseMapInfoENS7_12DenseSetPairIS6_EEEES6_S8_SA_SC_E13setNumEntriesEj(ptr noundef nonnull align 1 dereferenceable(1) %0, i32 noundef %1) #1 align 2 {
  %3 = alloca ptr, align 8
  %4 = alloca i32, align 4
  store ptr %0, ptr %3, align 8
  store i32 %1, ptr %4, align 4
  %5 = load ptr, ptr %3, align 8
  %6 = load i32, ptr %4, align 4
  call void @_ZN4llvm8DenseMapINS_11SmallVectorIPKNS_4SCEVELj4EEENS_6detail13DenseSetEmptyEN12_GLOBAL__N_122UniquifierDenseMapInfoENS6_12DenseSetPairIS5_EEE13setNumEntriesEj(ptr noundef nonnull align 8 dereferenceable(20) %5, i32 noundef %6)
  ret void
}

; Function Attrs: mustprogress nounwind uwtable
define internal void @_ZN4llvm12DenseMapBaseINS_8DenseMapINS_11SmallVectorIPKNS_4SCEVELj4EEENS_6detail13DenseSetEmptyEN12_GLOBAL__N_122UniquifierDenseMapInfoENS7_12DenseSetPairIS6_EEEES6_S8_SA_SC_E9initEmptyEv(ptr noundef nonnull align 1 dereferenceable(1) %0) #1 align 2 {
  %2 = alloca ptr, align 8
  %3 = alloca %"class.llvm::SmallVector.556", align 8
  %4 = alloca ptr, align 8
  %5 = alloca ptr, align 8
  store ptr %0, ptr %2, align 8
  %6 = load ptr, ptr %2, align 8
  call void @_ZN4llvm12DenseMapBaseINS_8DenseMapINS_11SmallVectorIPKNS_4SCEVELj4EEENS_6detail13DenseSetEmptyEN12_GLOBAL__N_122UniquifierDenseMapInfoENS7_12DenseSetPairIS6_EEEES6_S8_SA_SC_E13setNumEntriesEj(ptr noundef nonnull align 1 dereferenceable(1) %6, i32 noundef 0)
  call void @_ZN4llvm12DenseMapBaseINS_8DenseMapINS_11SmallVectorIPKNS_4SCEVELj4EEENS_6detail13DenseSetEmptyEN12_GLOBAL__N_122UniquifierDenseMapInfoENS7_12DenseSetPairIS6_EEEES6_S8_SA_SC_E16setNumTombstonesEj(ptr noundef nonnull align 1 dereferenceable(1) %6, i32 noundef 0)
  call void @_ZN4llvm12DenseMapBaseINS_8DenseMapINS_11SmallVectorIPKNS_4SCEVELj4EEENS_6detail13DenseSetEmptyEN12_GLOBAL__N_122UniquifierDenseMapInfoENS7_12DenseSetPairIS6_EEEES6_S8_SA_SC_E11getEmptyKeyEv(ptr dead_on_unwind writable sret(%"class.llvm::SmallVector.556") align 8 %3)
  %7 = call noundef ptr @_ZN4llvm12DenseMapBaseINS_8DenseMapINS_11SmallVectorIPKNS_4SCEVELj4EEENS_6detail13DenseSetEmptyEN12_GLOBAL__N_122UniquifierDenseMapInfoENS7_12DenseSetPairIS6_EEEES6_S8_SA_SC_E10getBucketsEv(ptr noundef nonnull align 1 dereferenceable(1) %6)
  store ptr %7, ptr %4, align 8
  %8 = call noundef ptr @_ZN4llvm12DenseMapBaseINS_8DenseMapINS_11SmallVectorIPKNS_4SCEVELj4EEENS_6detail13DenseSetEmptyEN12_GLOBAL__N_122UniquifierDenseMapInfoENS7_12DenseSetPairIS6_EEEES6_S8_SA_SC_E13getBucketsEndEv(ptr noundef nonnull align 1 dereferenceable(1) %6)
  store ptr %8, ptr %5, align 8
  br label %9

9:                                                ; preds = %16, %1
  %10 = load ptr, ptr %4, align 8
  %11 = load ptr, ptr %5, align 8
  %12 = icmp ne ptr %10, %11
  br i1 %12, label %13, label %19

13:                                               ; preds = %9
  %14 = load ptr, ptr %4, align 8
  %15 = call noundef nonnull align 8 dereferenceable(48) ptr @_ZN4llvm6detail12DenseSetPairINS_11SmallVectorIPKNS_4SCEVELj4EEEE8getFirstEv(ptr noundef nonnull align 8 dereferenceable(48) %14)
  call void @_ZN4llvm11SmallVectorIPKNS_4SCEVELj4EEC2ERKS4_(ptr noundef nonnull align 8 dereferenceable(48) %15, ptr noundef nonnull align 8 dereferenceable(48) %3)
  br label %16

16:                                               ; preds = %13
  %17 = load ptr, ptr %4, align 8
  %18 = getelementptr inbounds %"class.llvm::detail::DenseSetPair.688", ptr %17, i32 1
  store ptr %18, ptr %4, align 8
  br label %9, !llvm.loop !96

19:                                               ; preds = %9
  call void @_ZN4llvm11SmallVectorIPKNS_4SCEVELj4EED2Ev(ptr noundef nonnull align 8 dereferenceable(48) %3) #2
  ret void
}