; Function Attrs: mustprogress nounwind uwtable
define internal fastcc void @_ZN4llvm12DenseMapBaseINS_8DenseMapINS_11SmallVectorIPKNS_4SCEVELj4EEENS_6detail13DenseSetEmptyEN12_GLOBAL__N_122UniquifierDenseMapInfoENS7_12DenseSetPairIS6_EEEES6_S8_SA_SC_E9initEmptyEv(ptr nocapture noundef nonnull align 1 dereferenceable(1) %0) unnamed_addr #0 align 2 {
  %2 = alloca %"class.llvm::SmallVector.556", align 8
  %3 = getelementptr inbounds nuw i8, ptr %0, i64 8
  store i32 0, ptr %3, align 8
  %4 = getelementptr inbounds nuw i8, ptr %0, i64 12
  store i32 0, ptr %4, align 4
  call fastcc void @_ZN12_GLOBAL__N_122UniquifierDenseMapInfo11getEmptyKeyEv(ptr dead_on_unwind noalias writable align 8 %2)
  %.val = load ptr, ptr %0, align 8
  %5 = getelementptr i8, ptr %0, i64 16
  %.val6 = load i32, ptr %5, align 8
  %6 = zext i32 %.val6 to i64
  %7 = getelementptr inbounds %"class.llvm::detail::DenseSetPair.688", ptr %.val, i64 %6
  %.not7 = icmp eq i32 %.val6, 0
  br i1 %.not7, label %._crit_edge, label %.lr.ph

.lr.ph:                                           ; preds = %1, %_ZN4llvm11SmallVectorIPKNS_4SCEVELj4EEC2ERKS4_.exit
  %.08 = phi ptr [ %12, %_ZN4llvm11SmallVectorIPKNS_4SCEVELj4EEC2ERKS4_.exit ], [ %.val, %1 ]
  %8 = getelementptr inbounds i8, ptr %.08, i64 16
  call void @_ZN4llvm15SmallVectorBaseIjEC2EPvm(ptr noundef nonnull align 8 dereferenceable(16) %.08, ptr noundef nonnull %8, i64 noundef 4) #21
  %9 = call noundef zeroext i1 @_ZNK4llvm15SmallVectorBaseIjE5emptyEv(ptr noundef nonnull align 8 dereferenceable(16) %2) #21
  br i1 %9, label %_ZN4llvm11SmallVectorIPKNS_4SCEVELj4EEC2ERKS4_.exit, label %10

10:                                               ; preds = %.lr.ph
  %11 = call noundef nonnull align 8 dereferenceable(16) ptr @_ZN4llvm15SmallVectorImplIPKNS_4SCEVEEaSERKS4_(ptr noundef nonnull align 8 dereferenceable(16) %.08, ptr noundef nonnull align 8 dereferenceable(16) %2)
  br label %_ZN4llvm11SmallVectorIPKNS_4SCEVELj4EEC2ERKS4_.exit

_ZN4llvm11SmallVectorIPKNS_4SCEVELj4EEC2ERKS4_.exit: ; preds = %.lr.ph, %10
  %12 = getelementptr inbounds i8, ptr %.08, i64 48
  %.not = icmp eq ptr %12, %7
  br i1 %.not, label %._crit_edge, label %.lr.ph, !llvm.loop !400

._crit_edge:                                      ; preds = %_ZN4llvm11SmallVectorIPKNS_4SCEVELj4EEC2ERKS4_.exit, %1
  %13 = call noundef i64 @_ZNK4llvm15SmallVectorBaseIjE4sizeEv(ptr noundef nonnull align 8 dereferenceable(16) %2) #21
  %14 = load ptr, ptr %2, align 8
  %15 = getelementptr inbounds i8, ptr %2, i64 16
  %16 = icmp eq ptr %14, %15
  br i1 %16, label %_ZN4llvm11SmallVectorIPKNS_4SCEVELj4EED2Ev.exit, label %17

17:                                               ; preds = %._crit_edge
  call void @free(ptr noundef %14) #21
  br label %_ZN4llvm11SmallVectorIPKNS_4SCEVELj4EED2Ev.exit

_ZN4llvm11SmallVectorIPKNS_4SCEVELj4EED2Ev.exit:  ; preds = %._crit_edge, %17
  ret void
}